target datalayout = "e-m:e-p270:32:32-p271:32:32-p272:64:64-i64:64-i128:128-f80:128-n8:16:32:64-S128"
target triple = "x86_64-pc-linux-gnu"

; Function Attrs: nounwind uwtable
define i32 @rjulmdy(i64 noundef %0, ptr noundef %1) #0 {
  %3 = alloca i64, align 8
  %4 = alloca ptr, align 8
  %5 = alloca [3 x i32], align 4
  store i64 %0, ptr %3, align 8
  store ptr %1, ptr %4, align 8
  call void @llvm.lifetime.start.p0(i64 12, ptr %5) #9
  %6 = load i64, ptr %3, align 8
  %7 = getelementptr inbounds [3 x i32], ptr %5, i64 0, i64 0
  call void @PGTYPESdate_julmdy(i64 noundef %6, ptr noundef %7)
  %8 = getelementptr inbounds [3 x i32], ptr %5, i64 0, i64 0
  %9 = load i32, ptr %8, align 4
  %10 = trunc i32 %9 to i16
  %11 = load ptr, ptr %4, align 8
  %12 = getelementptr inbounds i16, ptr %11, i64 0
  store i16 %10, ptr %12, align 2
  %13 = getelementptr inbounds [3 x i32], ptr %5, i64 0, i64 1
  %14 = load i32, ptr %13, align 4
  %15 = trunc i32 %14 to i16
  %16 = load ptr, ptr %4, align 8
  %17 = getelementptr inbounds i16, ptr %16, i64 1
  store i16 %15, ptr %17, align 2
  %18 = getelementptr inbounds [3 x i32], ptr %5, i64 0, i64 2
  %19 = load i32, ptr %18, align 4
  %20 = trunc i32 %19 to i16
  %21 = load ptr, ptr %4, align 8
  %22 = getelementptr inbounds i16, ptr %21, i64 2
  store i16 %20, ptr %22, align 2
  call void @llvm.lifetime.end.p0(i64 12, ptr %5) #9
  ret i32 0
}