; Function Attrs: nounwind uwtable
define noundef i32 @rjulmdy(i64 noundef %0, ptr noundef writeonly captures(none) initializes((0, 6)) %1) local_unnamed_addr #0 {
  %3 = alloca [3 x i32], align 4
  call void @llvm.lifetime.start.p0(i64 12, ptr nonnull %3) #16
  call void @PGTYPESdate_julmdy(i64 noundef %0, ptr noundef nonnull %3) #16
  %4 = load i32, ptr %3, align 4
  %5 = trunc i32 %4 to i16
  store i16 %5, ptr %1, align 2
  %6 = getelementptr inbounds nuw i8, ptr %3, i64 4
  %7 = load i32, ptr %6, align 4
  %8 = trunc i32 %7 to i16
  %9 = getelementptr inbounds nuw i8, ptr %1, i64 2
  store i16 %8, ptr %9, align 2
  %10 = getelementptr inbounds nuw i8, ptr %3, i64 8
  %11 = load i32, ptr %10, align 4
  %12 = trunc i32 %11 to i16
  %13 = getelementptr inbounds nuw i8, ptr %1, i64 4
  store i16 %12, ptr %13, align 2
  call void @llvm.lifetime.end.p0(i64 12, ptr nonnull %3) #16
  ret i32 0
}